target datalayout = "e-m:e-p270:32:32-p271:32:32-p272:64:64-i64:64-i128:128-f80:128-n8:16:32:64-S128"
target triple = "x86_64-pc-linux-gnu"

%"class.cv::DISOpticalFlowImpl" = type { %"class.cv::DISOpticalFlow", i32, i32, i32, i32, i32, i32, float, float, float, float, i8, i8, i32, i32, i32, i32, i32, %"class.std::vector", %"class.std::vector", %"class.std::vector", %"class.std::vector.0", %"class.std::vector.0", %"class.std::vector.5", %"class.std::vector.5", %"class.std::vector.5", %"class.std::vector.5", %"class.cv::Mat_", %"class.cv::Mat_.10", %"class.cv::Mat_.10", %"class.cv::Mat_.10", %"class.cv::Mat_.10", %"class.cv::Mat_.10", %"class.cv::Mat_.10", %"class.cv::Mat_.10", %"class.cv::Mat_.10", %"class.cv::Mat_.10", %"class.cv::Mat_.10", %"class.cv::Mat_.10", %"class.cv::Mat_.10", %"class.std::vector.11" }
%"class.cv::DISOpticalFlow" = type { %"class.cv::DenseOpticalFlow" }
%"class.cv::DenseOpticalFlow" = type { %"class.cv::Algorithm" }
%"class.cv::Algorithm" = type { ptr }
%"class.std::vector" = type { %"struct.std::_Vector_base" }
%"struct.std::_Vector_base" = type { %"struct.std::_Vector_base<cv::Mat_<unsigned char>, std::allocator<cv::Mat_<unsigned char>>>::_Vector_impl" }
%"struct.std::_Vector_base<cv::Mat_<unsigned char>, std::allocator<cv::Mat_<unsigned char>>>::_Vector_impl" = type { %"struct.std::_Vector_base<cv::Mat_<unsigned char>, std::allocator<cv::Mat_<unsigned char>>>::_Vector_impl_data" }
%"struct.std::_Vector_base<cv::Mat_<unsigned char>, std::allocator<cv::Mat_<unsigned char>>>::_Vector_impl_data" = type { ptr, ptr, ptr }
%"class.std::vector.0" = type { %"struct.std::_Vector_base.1" }
%"struct.std::_Vector_base.1" = type { %"struct.std::_Vector_base<cv::Mat_<short>, std::allocator<cv::Mat_<short>>>::_Vector_impl" }
%"struct.std::_Vector_base<cv::Mat_<short>, std::allocator<cv::Mat_<short>>>::_Vector_impl" = type { %"struct.std::_Vector_base<cv::Mat_<short>, std::allocator<cv::Mat_<short>>>::_Vector_impl_data" }
%"struct.std::_Vector_base<cv::Mat_<short>, std::allocator<cv::Mat_<short>>>::_Vector_impl_data" = type { ptr, ptr, ptr }
%"class.std::vector.5" = type { %"struct.std::_Vector_base.6" }
%"struct.std::_Vector_base.6" = type { %"struct.std::_Vector_base<cv::Mat_<float>, std::allocator<cv::Mat_<float>>>::_Vector_impl" }
%"struct.std::_Vector_base<cv::Mat_<float>, std::allocator<cv::Mat_<float>>>::_Vector_impl" = type { %"struct.std::_Vector_base<cv::Mat_<float>, std::allocator<cv::Mat_<float>>>::_Vector_impl_data" }
%"struct.std::_Vector_base<cv::Mat_<float>, std::allocator<cv::Mat_<float>>>::_Vector_impl_data" = type { ptr, ptr, ptr }
%"class.cv::Mat_" = type { %"class.cv::Mat" }
%"class.cv::Mat" = type { i32, i32, i32, i32, ptr, ptr, ptr, ptr, ptr, ptr, %"struct.cv::MatSize", %"struct.cv::MatStep" }
%"struct.cv::MatSize" = type { ptr }
%"struct.cv::MatStep" = type { ptr, [2 x i64] }
%"class.cv::Mat_.10" = type { %"class.cv::Mat" }
%"class.std::vector.11" = type { %"struct.std::_Vector_base.12" }
%"struct.std::_Vector_base.12" = type { %"struct.std::_Vector_base<cv::Ptr<cv::VariationalRefinement>, std::allocator<cv::Ptr<cv::VariationalRefinement>>>::_Vector_impl" }
%"struct.std::_Vector_base<cv::Ptr<cv::VariationalRefinement>, std::allocator<cv::Ptr<cv::VariationalRefinement>>>::_Vector_impl" = type { %"struct.std::_Vector_base<cv::Ptr<cv::VariationalRefinement>, std::allocator<cv::Ptr<cv::VariationalRefinement>>>::_Vector_impl_data" }
%"struct.std::_Vector_base<cv::Ptr<cv::VariationalRefinement>, std::allocator<cv::Ptr<cv::VariationalRefinement>>>::_Vector_impl_data" = type { ptr, ptr, ptr }

; Function Attrs: inlinehint mustprogress nounwind uwtable
define linkonce_odr noundef float @_ZSt5floorf(float noundef %0) #3 comdat {
  %2 = alloca float, align 4
  store float %0, ptr %2, align 4, !tbaa !129
  %3 = load float, ptr %2, align 4, !tbaa !129
  %4 = call float @llvm.floor.f32(float %3)
  ret float %4
}

; Function Attrs: mustprogress nounwind uwtable
define linkonce_odr noundef float @_ZSt4log2f(float noundef %0) #2 comdat {
  %2 = alloca float, align 4
  store float %0, ptr %2, align 4, !tbaa !129
  %3 = load float, ptr %2, align 4, !tbaa !129
  %4 = call float @log2f(float noundef %3) #18, !tbaa !60
  ret float %4
}

; Function Attrs: inlinehint mustprogress nounwind uwtable
define linkonce_odr noundef nonnull align 4 dereferenceable(4) ptr @_ZSt3maxIiERKT_S2_S2_(ptr noundef nonnull align 4 dereferenceable(4) %0, ptr noundef nonnull align 4 dereferenceable(4) %1) #3 comdat {
  %3 = alloca ptr, align 8
  %4 = alloca ptr, align 8
  %5 = alloca ptr, align 8
  store ptr %0, ptr %4, align 8, !tbaa !151
  store ptr %1, ptr %5, align 8, !tbaa !151
  %6 = load ptr, ptr %4, align 8, !tbaa !151
  %7 = load i32, ptr %6, align 4, !tbaa !60
  %8 = load ptr, ptr %5, align 8, !tbaa !151
  %9 = load i32, ptr %8, align 4, !tbaa !60
  %10 = icmp slt i32 %7, %9
  br i1 %10, label %11, label %13

11:                                               ; preds = %2
  %12 = load ptr, ptr %5, align 8, !tbaa !151
  store ptr %12, ptr %3, align 8
  br label %15

13:                                               ; preds = %2
  %14 = load ptr, ptr %4, align 8, !tbaa !151
  store ptr %14, ptr %3, align 8
  br label %15

15:                                               ; preds = %13, %11
  %16 = load ptr, ptr %3, align 8
  ret ptr %16
}

; Function Attrs: mustprogress uwtable
define hidden noundef i32 @_ZN2cv18DISOpticalFlowImpl23autoSelectCoarsestScaleEi(ptr noundef nonnull align 8 dereferenceable(1560) %0, i32 noundef %1) #0 align 2 {
  %3 = alloca ptr, align 8
  %4 = alloca i32, align 4
  %5 = alloca i32, align 4
  %6 = alloca i32, align 4
  %7 = alloca i32, align 4
  store ptr %0, ptr %3, align 8, !tbaa !3
  store i32 %1, ptr %4, align 4, !tbaa !60
  %8 = load ptr, ptr %3, align 8
  call void @llvm.lifetime.start.p0(i64 4, ptr %5) #18
  store i32 5, ptr %5, align 4, !tbaa !60
  call void @llvm.lifetime.start.p0(i64 4, ptr %6) #18
  store i32 0, ptr %6, align 4, !tbaa !60
  call void @llvm.lifetime.start.p0(i64 4, ptr %7) #18
  %9 = load i32, ptr %4, align 4, !tbaa !60
  %10 = sitofp i32 %9 to float
  %11 = fmul float 2.000000e+00, %10
  %12 = getelementptr inbounds nuw %"class.cv::DISOpticalFlowImpl", ptr %8, i32 0, i32 3
  %13 = load i32, ptr %12, align 8, !tbaa !48
  %14 = sitofp i32 %13 to float
  %15 = fmul float 5.000000e+00, %14
  %16 = fdiv float %11, %15
  %17 = call noundef float @_ZSt4log2f(float noundef %16)
  %18 = call noundef float @_ZSt5floorf(float noundef %17)
  %19 = fptosi float %18 to i32
  store i32 %19, ptr %7, align 4, !tbaa !60
  %20 = call noundef nonnull align 4 dereferenceable(4) ptr @_ZSt3maxIiERKT_S2_S2_(ptr noundef nonnull align 4 dereferenceable(4) %6, ptr noundef nonnull align 4 dereferenceable(4) %7)
  %21 = load i32, ptr %20, align 4, !tbaa !60
  call void @llvm.lifetime.end.p0(i64 4, ptr %7) #18
  call void @llvm.lifetime.end.p0(i64 4, ptr %6) #18
  call void @llvm.lifetime.end.p0(i64 4, ptr %5) #18
  ret i32 %21
}

; Function Attrs: mustprogress uwtable
define hidden void @_ZN2cv18DISOpticalFlowImpl28autoSelectPatchSizeAndScalesEi(ptr noundef nonnull align 8 dereferenceable(1560) %0, i32 noundef %1) #0 align 2 {
  %3 = alloca ptr, align 8
  %4 = alloca i32, align 4
  %5 = alloca i32, align 4
  %6 = alloca i32, align 4
  %7 = alloca i32, align 4
  %8 = alloca i32, align 4
  %9 = alloca i32, align 4
  %10 = alloca i32, align 4
  %11 = alloca i32, align 4
  %12 = alloca i32, align 4
  store ptr %0, ptr %3, align 8, !tbaa !3
  store i32 %1, ptr %4, align 4, !tbaa !60
  %13 = load ptr, ptr %3, align 8
  %14 = getelementptr inbounds nuw %"class.cv::DISOpticalFlowImpl", ptr %13, i32 0, i32 1
  %15 = load i32, ptr %14, align 8, !tbaa !10
  switch i32 %15, label %50 [
    i32 1, label %16
    i32 3, label %27
    i32 4, label %38
    i32 2, label %49
  ]

16:                                               ; preds = %2
  %17 = getelementptr inbounds nuw %"class.cv::DISOpticalFlowImpl", ptr %13, i32 0, i32 3
  store i32 8, ptr %17, align 8, !tbaa !48
  %18 = load i32, ptr %4, align 4, !tbaa !60
  %19 = call noundef i32 @_ZN2cv18DISOpticalFlowImpl23autoSelectCoarsestScaleEi(ptr noundef nonnull align 8 dereferenceable(1560) %13, i32 noundef %18)
  %20 = getelementptr inbounds nuw %"class.cv::DISOpticalFlowImpl", ptr %13, i32 0, i32 2
  store i32 %19, ptr %20, align 4, !tbaa !59
  call void @llvm.lifetime.start.p0(i64 4, ptr %5) #18
  %21 = getelementptr inbounds nuw %"class.cv::DISOpticalFlowImpl", ptr %13, i32 0, i32 2
  %22 = load i32, ptr %21, align 4, !tbaa !59
  %23 = sub nsw i32 %22, 2
  store i32 %23, ptr %5, align 4, !tbaa !60
  call void @llvm.lifetime.start.p0(i64 4, ptr %6) #18
  store i32 0, ptr %6, align 4, !tbaa !60
  %24 = call noundef nonnull align 4 dereferenceable(4) ptr @_ZSt3maxIiERKT_S2_S2_(ptr noundef nonnull align 4 dereferenceable(4) %5, ptr noundef nonnull align 4 dereferenceable(4) %6)
  %25 = load i32, ptr %24, align 4, !tbaa !60
  %26 = getelementptr inbounds nuw %"class.cv::DISOpticalFlowImpl", ptr %13, i32 0, i32 1
  store i32 %25, ptr %26, align 8, !tbaa !10
  call void @llvm.lifetime.end.p0(i64 4, ptr %6) #18
  call void @llvm.lifetime.end.p0(i64 4, ptr %5) #18
  br label %61

27:                                               ; preds = %2
  %28 = getelementptr inbounds nuw %"class.cv::DISOpticalFlowImpl", ptr %13, i32 0, i32 3
  store i32 12, ptr %28, align 8, !tbaa !48
  %29 = load i32, ptr %4, align 4, !tbaa !60
  %30 = call noundef i32 @_ZN2cv18DISOpticalFlowImpl23autoSelectCoarsestScaleEi(ptr noundef nonnull align 8 dereferenceable(1560) %13, i32 noundef %29)
  %31 = getelementptr inbounds nuw %"class.cv::DISOpticalFlowImpl", ptr %13, i32 0, i32 2
  store i32 %30, ptr %31, align 4, !tbaa !59
  call void @llvm.lifetime.start.p0(i64 4, ptr %7) #18
  %32 = getelementptr inbounds nuw %"class.cv::DISOpticalFlowImpl", ptr %13, i32 0, i32 2
  %33 = load i32, ptr %32, align 4, !tbaa !59
  %34 = sub nsw i32 %33, 4
  store i32 %34, ptr %7, align 4, !tbaa !60
  call void @llvm.lifetime.start.p0(i64 4, ptr %8) #18
  store i32 0, ptr %8, align 4, !tbaa !60
  %35 = call noundef nonnull align 4 dereferenceable(4) ptr @_ZSt3maxIiERKT_S2_S2_(ptr noundef nonnull align 4 dereferenceable(4) %7, ptr noundef nonnull align 4 dereferenceable(4) %8)
  %36 = load i32, ptr %35, align 4, !tbaa !60
  %37 = getelementptr inbounds nuw %"class.cv::DISOpticalFlowImpl", ptr %13, i32 0, i32 1
  store i32 %36, ptr %37, align 8, !tbaa !10
  call void @llvm.lifetime.end.p0(i64 4, ptr %8) #18
  call void @llvm.lifetime.end.p0(i64 4, ptr %7) #18
  br label %61

38:                                               ; preds = %2
  %39 = getelementptr inbounds nuw %"class.cv::DISOpticalFlowImpl", ptr %13, i32 0, i32 3
  store i32 12, ptr %39, align 8, !tbaa !48
  %40 = load i32, ptr %4, align 4, !tbaa !60
  %41 = call noundef i32 @_ZN2cv18DISOpticalFlowImpl23autoSelectCoarsestScaleEi(ptr noundef nonnull align 8 dereferenceable(1560) %13, i32 noundef %40)
  %42 = getelementptr inbounds nuw %"class.cv::DISOpticalFlowImpl", ptr %13, i32 0, i32 2
  store i32 %41, ptr %42, align 4, !tbaa !59
  call void @llvm.lifetime.start.p0(i64 4, ptr %9) #18
  %43 = getelementptr inbounds nuw %"class.cv::DISOpticalFlowImpl", ptr %13, i32 0, i32 2
  %44 = load i32, ptr %43, align 4, !tbaa !59
  %45 = sub nsw i32 %44, 5
  store i32 %45, ptr %9, align 4, !tbaa !60
  call void @llvm.lifetime.start.p0(i64 4, ptr %10) #18
  store i32 0, ptr %10, align 4, !tbaa !60
  %46 = call noundef nonnull align 4 dereferenceable(4) ptr @_ZSt3maxIiERKT_S2_S2_(ptr noundef nonnull align 4 dereferenceable(4) %9, ptr noundef nonnull align 4 dereferenceable(4) %10)
  %47 = load i32, ptr %46, align 4, !tbaa !60
  %48 = getelementptr inbounds nuw %"class.cv::DISOpticalFlowImpl", ptr %13, i32 0, i32 1
  store i32 %47, ptr %48, align 8, !tbaa !10
  call void @llvm.lifetime.end.p0(i64 4, ptr %10) #18
  call void @llvm.lifetime.end.p0(i64 4, ptr %9) #18
  br label %61

49:                                               ; preds = %2
  br label %50

50:                                               ; preds = %2, %49
  %51 = getelementptr inbounds nuw %"class.cv::DISOpticalFlowImpl", ptr %13, i32 0, i32 3
  store i32 8, ptr %51, align 8, !tbaa !48
  %52 = load i32, ptr %4, align 4, !tbaa !60
  %53 = call noundef i32 @_ZN2cv18DISOpticalFlowImpl23autoSelectCoarsestScaleEi(ptr noundef nonnull align 8 dereferenceable(1560) %13, i32 noundef %52)
  %54 = getelementptr inbounds nuw %"class.cv::DISOpticalFlowImpl", ptr %13, i32 0, i32 2
  store i32 %53, ptr %54, align 4, !tbaa !59
  call void @llvm.lifetime.start.p0(i64 4, ptr %11) #18
  %55 = getelementptr inbounds nuw %"class.cv::DISOpticalFlowImpl", ptr %13, i32 0, i32 2
  %56 = load i32, ptr %55, align 4, !tbaa !59
  %57 = sub nsw i32 %56, 2
  store i32 %57, ptr %11, align 4, !tbaa !60
  call void @llvm.lifetime.start.p0(i64 4, ptr %12) #18
  store i32 0, ptr %12, align 4, !tbaa !60
  %58 = call noundef nonnull align 4 dereferenceable(4) ptr @_ZSt3maxIiERKT_S2_S2_(ptr noundef nonnull align 4 dereferenceable(4) %11, ptr noundef nonnull align 4 dereferenceable(4) %12)
  %59 = load i32, ptr %58, align 4, !tbaa !60
  %60 = getelementptr inbounds nuw %"class.cv::DISOpticalFlowImpl", ptr %13, i32 0, i32 1
  store i32 %59, ptr %60, align 8, !tbaa !10
  call void @llvm.lifetime.end.p0(i64 4, ptr %12) #18
  call void @llvm.lifetime.end.p0(i64 4, ptr %11) #18
  br label %61

61:                                               ; preds = %50, %38, %27, %16
  ret void
}