; Function Attrs: mustprogress nofree nounwind willreturn memory(write, argmem: readwrite) uwtable
define hidden void @_ZN2cv18DISOpticalFlowImpl28autoSelectPatchSizeAndScalesEi(ptr noundef nonnull align 8 captures(none) dereferenceable(1560) initializes((12, 20)) %0, i32 noundef %1) local_unnamed_addr #6 align 2 {
  %3 = getelementptr inbounds nuw i8, ptr %0, i64 8
  %4 = load i32, ptr %3, align 8, !tbaa !18
  %5 = getelementptr inbounds nuw i8, ptr %0, i64 16
  %6 = sitofp i32 %1 to float
  %7 = fmul float %6, 2.000000e+00
  %8 = getelementptr inbounds nuw i8, ptr %0, i64 12
  switch i32 %4, label %27 [
    i32 1, label %9
    i32 3, label %15
    i32 4, label %21
  ]

9:                                                ; preds = %2
  store i32 8, ptr %5, align 8, !tbaa !47
  %10 = fdiv float %7, 4.000000e+01
  %11 = tail call noundef float @log2f(float noundef %10) #21, !tbaa !74
  %12 = tail call noundef float @llvm.floor.f32(float %11)
  %13 = fptosi float %12 to i32
  %.sroa.speculated.i = tail call noundef range(i32 0, -2147483648) i32 @llvm.smax.i32(i32 %13, i32 0)
  store i32 %.sroa.speculated.i, ptr %8, align 4, !tbaa !58
  %14 = tail call i32 @llvm.smax.i32(i32 %13, i32 2)
  %.sroa.speculated23 = add nsw i32 %14, -2
  br label %33

15:                                               ; preds = %2
  store i32 12, ptr %5, align 8, !tbaa !47
  %16 = fdiv float %7, 6.000000e+01
  %17 = tail call noundef float @log2f(float noundef %16) #21, !tbaa !74
  %18 = tail call noundef float @llvm.floor.f32(float %17)
  %19 = fptosi float %18 to i32
  %.sroa.speculated.i4 = tail call noundef range(i32 0, -2147483648) i32 @llvm.smax.i32(i32 %19, i32 0)
  store i32 %.sroa.speculated.i4, ptr %8, align 4, !tbaa !58
  %20 = tail call i32 @llvm.smax.i32(i32 %19, i32 4)
  %.sroa.speculated18 = add nsw i32 %20, -4
  br label %33

21:                                               ; preds = %2
  store i32 12, ptr %5, align 8, !tbaa !47
  %22 = fdiv float %7, 6.000000e+01
  %23 = tail call noundef float @log2f(float noundef %22) #21, !tbaa !74
  %24 = tail call noundef float @llvm.floor.f32(float %23)
  %25 = fptosi float %24 to i32
  %.sroa.speculated.i6 = tail call noundef range(i32 0, -2147483648) i32 @llvm.smax.i32(i32 %25, i32 0)
  store i32 %.sroa.speculated.i6, ptr %8, align 4, !tbaa !58
  %26 = tail call i32 @llvm.smax.i32(i32 %25, i32 5)
  %.sroa.speculated13 = add nsw i32 %26, -5
  br label %33

27:                                               ; preds = %2
  store i32 8, ptr %5, align 8, !tbaa !47
  %28 = fdiv float %7, 4.000000e+01
  %29 = tail call noundef float @log2f(float noundef %28) #21, !tbaa !74
  %30 = tail call noundef float @llvm.floor.f32(float %29)
  %31 = fptosi float %30 to i32
  %.sroa.speculated.i8 = tail call noundef range(i32 0, -2147483648) i32 @llvm.smax.i32(i32 %31, i32 0)
  store i32 %.sroa.speculated.i8, ptr %8, align 4, !tbaa !58
  %32 = tail call i32 @llvm.smax.i32(i32 %31, i32 2)
  %.sroa.speculated = add nsw i32 %32, -2
  br label %33

33:                                               ; preds = %27, %21, %15, %9
  %.sroa.speculated.sink = phi i32 [ %.sroa.speculated, %27 ], [ %.sroa.speculated13, %21 ], [ %.sroa.speculated18, %15 ], [ %.sroa.speculated23, %9 ]
  store i32 %.sroa.speculated.sink, ptr %3, align 8, !tbaa !18
  ret void
}